; Function Attrs: nounwind uwtable
define range(i32 0, -2147483648) i32 @ECDSA_size(ptr noundef %0) local_unnamed_addr #0 {
  %2 = alloca i64, align 8
  %3 = alloca %struct.wpacket_st, align 8
  %4 = icmp eq ptr %0, null
  br i1 %4, label %23, label %5

5:                                                ; preds = %1
  %6 = tail call ptr @EC_KEY_get0_group(ptr noundef nonnull %0) #8
  %7 = icmp eq ptr %6, null
  br i1 %7, label %23, label %8

8:                                                ; preds = %5
  %9 = tail call ptr @EC_GROUP_get0_order(ptr noundef nonnull %6) #8
  %10 = icmp eq ptr %9, null
  br i1 %10, label %23, label %11

11:                                               ; preds = %8
  call void @llvm.lifetime.start.p0(i64 8, ptr nonnull %2) #8
  call void @llvm.lifetime.start.p0(i64 56, ptr nonnull %3) #8
  %12 = call i32 @WPACKET_init_null(ptr noundef nonnull %3, i64 noundef 0) #8
  %.not21.i = icmp eq i32 %12, 0
  br i1 %.not21.i, label %i2d_ECDSA_SIG.exit, label %13

13:                                               ; preds = %11
  %14 = call i32 @ossl_encode_der_dsa_sig(ptr noundef nonnull %3, ptr noundef nonnull %9, ptr noundef nonnull %9) #8
  %.not22.i = icmp eq i32 %14, 0
  br i1 %.not22.i, label %19, label %15

15:                                               ; preds = %13
  %16 = call i32 @WPACKET_get_total_written(ptr noundef nonnull %3, ptr noundef nonnull %2) #8
  %.not23.i = icmp eq i32 %16, 0
  br i1 %.not23.i, label %19, label %17

17:                                               ; preds = %15
  %18 = call i32 @WPACKET_finish(ptr noundef nonnull %3) #8
  %.not24.i = icmp eq i32 %18, 0
  br i1 %.not24.i, label %19, label %20

19:                                               ; preds = %17, %15, %13
  call void @BUF_MEM_free(ptr noundef null) #8
  call void @WPACKET_cleanup(ptr noundef nonnull %3) #8
  br label %i2d_ECDSA_SIG.exit

20:                                               ; preds = %17
  %21 = load i64, ptr %2, align 8, !tbaa !82
  %22 = trunc i64 %21 to i32
  br label %i2d_ECDSA_SIG.exit

i2d_ECDSA_SIG.exit:                               ; preds = %11, %19, %20
  %.015.i = phi i32 [ %22, %20 ], [ -1, %19 ], [ -1, %11 ]
  call void @llvm.lifetime.end.p0(i64 56, ptr nonnull %3) #8
  call void @llvm.lifetime.end.p0(i64 8, ptr nonnull %2) #8
  %spec.store.select = call i32 @llvm.smax.i32(i32 %.015.i, i32 0)
  br label %23

23:                                               ; preds = %8, %5, %1, %i2d_ECDSA_SIG.exit
  %.0 = phi i32 [ %spec.store.select, %i2d_ECDSA_SIG.exit ], [ 0, %1 ], [ 0, %5 ], [ 0, %8 ]
  ret i32 %.0
}